
kernel.elf:     file format elf32-littleriscv


Disassembly of section .text:

80000000 <_start>:
80000000:	80010137          	lui	sp,0x80010
80000004:	2011                	jal	80000008 <kernel_main>

80000006 <hang>:
80000006:	a001                	j	80000006 <hang>

80000008 <kernel_main>:
80000008:	2a81                	jal	80000158 <c_kernel_main>
8000000a:	8082                	ret

8000000c <print_char>:
8000000c:	100002b7          	lui	t0,0x10000
80000010:	00a28023          	sb	a0,0(t0) # 10000000 <_start-0x70000000>
80000014:	8082                	ret

80000016 <print_string>:
80000016:	1141                	addi	sp,sp,-16 # 8000fff0 <_user_program_end+0xebe8>
80000018:	c606                	sw	ra,12(sp)
8000001a:	c41a                	sw	t1,8(sp)
8000001c:	832a                	mv	t1,a0

8000001e <loop>:
8000001e:	00030383          	lb	t2,0(t1)
80000022:	00038663          	beqz	t2,8000002e <done>
80000026:	851e                	mv	a0,t2
80000028:	37d5                	jal	8000000c <print_char>
8000002a:	0305                	addi	t1,t1,1
8000002c:	bfcd                	j	8000001e <loop>

8000002e <done>:
8000002e:	40b2                	lw	ra,12(sp)
80000030:	4322                	lw	t1,8(sp)
80000032:	0141                	addi	sp,sp,16
80000034:	8082                	ret

80000036 <print_int>:
80000036:	1141                	addi	sp,sp,-16
80000038:	c606                	sw	ra,12(sp)
8000003a:	c90d                	beqz	a0,8000006c <print_zero>
8000003c:	4329                	li	t1,10
8000003e:	00b10393          	addi	t2,sp,11

80000042 <fill_loop>:
80000042:	02656e33          	rem	t3,a0,t1
80000046:	030e0e13          	addi	t3,t3,48
8000004a:	01c38023          	sb	t3,0(t2)
8000004e:	02654533          	div	a0,a0,t1
80000052:	13fd                	addi	t2,t2,-1
80000054:	f57d                	bnez	a0,80000042 <fill_loop>
80000056:	0385                	addi	t2,t2,1
80000058:	00c10e93          	addi	t4,sp,12

8000005c <print_loop>:
8000005c:	01d38763          	beq	t2,t4,8000006a <print_done>
80000060:	00038503          	lb	a0,0(t2)
80000064:	3765                	jal	8000000c <print_char>
80000066:	0385                	addi	t2,t2,1
80000068:	bfd5                	j	8000005c <print_loop>

8000006a <print_done>:
8000006a:	a021                	j	80000072 <restore>

8000006c <print_zero>:
8000006c:	03000513          	li	a0,48
80000070:	3f71                	jal	8000000c <print_char>

80000072 <restore>:
80000072:	40b2                	lw	ra,12(sp)
80000074:	0141                	addi	sp,sp,16
80000076:	8082                	ret

80000078 <print_hex>:
80000078:	1141                	addi	sp,sp,-16
8000007a:	c606                	sw	ra,12(sp)
8000007c:	8f2a                	mv	t5,a0
8000007e:	03000513          	li	a0,48
80000082:	3769                	jal	8000000c <print_char>
80000084:	07800513          	li	a0,120
80000088:	3751                	jal	8000000c <print_char>
8000008a:	857a                	mv	a0,t5
8000008c:	cd1d                	beqz	a0,800000ca <hex_print_zero>
8000008e:	4341                	li	t1,16
80000090:	00b10393          	addi	t2,sp,11

80000094 <hex_fill_loop>:
80000094:	02657e33          	remu	t3,a0,t1
80000098:	4ea5                	li	t4,9
8000009a:	01cec563          	blt	t4,t3,800000a4 <hex_is_alpha>
8000009e:	030e0e13          	addi	t3,t3,48
800000a2:	a019                	j	800000a8 <hex_store>

800000a4 <hex_is_alpha>:
800000a4:	057e0e13          	addi	t3,t3,87

800000a8 <hex_store>:
800000a8:	01c38023          	sb	t3,0(t2)
800000ac:	02655533          	divu	a0,a0,t1
800000b0:	13fd                	addi	t2,t2,-1
800000b2:	f16d                	bnez	a0,80000094 <hex_fill_loop>
800000b4:	0385                	addi	t2,t2,1
800000b6:	00c10e93          	addi	t4,sp,12

800000ba <hex_print_loop>:
800000ba:	01d38763          	beq	t2,t4,800000c8 <hex_print_done>
800000be:	00038503          	lb	a0,0(t2)
800000c2:	37a9                	jal	8000000c <print_char>
800000c4:	0385                	addi	t2,t2,1
800000c6:	bfd5                	j	800000ba <hex_print_loop>

800000c8 <hex_print_done>:
800000c8:	a021                	j	800000d0 <hex_restore>

800000ca <hex_print_zero>:
800000ca:	03000513          	li	a0,48
800000ce:	3f3d                	jal	8000000c <print_char>

800000d0 <hex_restore>:
800000d0:	40b2                	lw	ra,12(sp)
800000d2:	0141                	addi	sp,sp,16
800000d4:	8082                	ret

800000d6 <jump_to_process>:
800000d6:	08052283          	lw	t0,128(a0)
800000da:	34129073          	csrw	mepc,t0
800000de:	08452103          	lw	sp,132(a0)
800000e2:	6289                	lui	t0,0x2
800000e4:	88828293          	addi	t0,t0,-1912 # 1888 <_start-0x7fffe778>
800000e8:	30029073          	csrw	mstatus,t0
800000ec:	30200073          	mret

800000f0 <process_a>:
800000f0:	1101                	addi	sp,sp,-32
800000f2:	ce06                	sw	ra,28(sp)
800000f4:	cc22                	sw	s0,24(sp)
800000f6:	1000                	addi	s0,sp,32
800000f8:	800017b7          	lui	a5,0x80001
800000fc:	b8c78513          	addi	a0,a5,-1140 # 80000b8c <msg+0x14>
80000100:	2e79                	jal	8000049e <uart_puts>
80000102:	fe042623          	sw	zero,-20(s0)
80000106:	a031                	j	80000112 <process_a+0x22>
80000108:	fec42783          	lw	a5,-20(s0)
8000010c:	0785                	addi	a5,a5,1
8000010e:	fef42623          	sw	a5,-20(s0)
80000112:	fec42703          	lw	a4,-20(s0)
80000116:	0007a7b7          	lui	a5,0x7a
8000011a:	11f78793          	addi	a5,a5,287 # 7a11f <_start-0x7ff85ee1>
8000011e:	fee7d5e3          	bge	a5,a4,80000108 <process_a+0x18>
80000122:	bfd9                	j	800000f8 <process_a+0x8>

80000124 <process_b>:
80000124:	1101                	addi	sp,sp,-32
80000126:	ce06                	sw	ra,28(sp)
80000128:	cc22                	sw	s0,24(sp)
8000012a:	1000                	addi	s0,sp,32
8000012c:	800017b7          	lui	a5,0x80001
80000130:	b9078513          	addi	a0,a5,-1136 # 80000b90 <msg+0x18>
80000134:	26ad                	jal	8000049e <uart_puts>
80000136:	fe042623          	sw	zero,-20(s0)
8000013a:	a031                	j	80000146 <process_b+0x22>
8000013c:	fec42783          	lw	a5,-20(s0)
80000140:	0785                	addi	a5,a5,1
80000142:	fef42623          	sw	a5,-20(s0)
80000146:	fec42703          	lw	a4,-20(s0)
8000014a:	0007a7b7          	lui	a5,0x7a
8000014e:	11f78793          	addi	a5,a5,287 # 7a11f <_start-0x7ff85ee1>
80000152:	fee7d5e3          	bge	a5,a4,8000013c <process_b+0x18>
80000156:	bfd9                	j	8000012c <process_b+0x8>

80000158 <c_kernel_main>:
80000158:	7179                	addi	sp,sp,-48
8000015a:	d606                	sw	ra,44(sp)
8000015c:	d422                	sw	s0,40(sp)
8000015e:	1800                	addi	s0,sp,48
80000160:	800017b7          	lui	a5,0x80001
80000164:	b9478513          	addi	a0,a5,-1132 # 80000b94 <msg+0x1c>
80000168:	2e1d                	jal	8000049e <uart_puts>
8000016a:	2321                	jal	80000672 <mem_init>
8000016c:	800017b7          	lui	a5,0x80001
80000170:	bac78513          	addi	a0,a5,-1108 # 80000bac <msg+0x34>
80000174:	262d                	jal	8000049e <uart_puts>
80000176:	2bb9                	jal	800006d4 <kalloc>
80000178:	fea42623          	sw	a0,-20(s0)
8000017c:	800017b7          	lui	a5,0x80001
80000180:	bc078513          	addi	a0,a5,-1088 # 80000bc0 <msg+0x48>
80000184:	2e29                	jal	8000049e <uart_puts>
80000186:	fec42783          	lw	a5,-20(s0)
8000018a:	853e                	mv	a0,a5
8000018c:	2929                	jal	800005a6 <uart_puthex>
8000018e:	4529                	li	a0,10
80000190:	24cd                	jal	80000472 <uart_putc>
80000192:	2389                	jal	800006d4 <kalloc>
80000194:	fea42423          	sw	a0,-24(s0)
80000198:	800017b7          	lui	a5,0x80001
8000019c:	bd478513          	addi	a0,a5,-1068 # 80000bd4 <msg+0x5c>
800001a0:	2cfd                	jal	8000049e <uart_puts>
800001a2:	fe842783          	lw	a5,-24(s0)
800001a6:	853e                	mv	a0,a5
800001a8:	2efd                	jal	800005a6 <uart_puthex>
800001aa:	4529                	li	a0,10
800001ac:	24d9                	jal	80000472 <uart_putc>
800001ae:	fec42503          	lw	a0,-20(s0)
800001b2:	2385                	jal	80000712 <kfree>
800001b4:	800017b7          	lui	a5,0x80001
800001b8:	be878513          	addi	a0,a5,-1048 # 80000be8 <msg+0x70>
800001bc:	24cd                	jal	8000049e <uart_puts>
800001be:	2b19                	jal	800006d4 <kalloc>
800001c0:	fea42223          	sw	a0,-28(s0)
800001c4:	800017b7          	lui	a5,0x80001
800001c8:	bf878513          	addi	a0,a5,-1032 # 80000bf8 <msg+0x80>
800001cc:	2cc9                	jal	8000049e <uart_puts>
800001ce:	fe442783          	lw	a5,-28(s0)
800001d2:	853e                	mv	a0,a5
800001d4:	2ec9                	jal	800005a6 <uart_puthex>
800001d6:	4529                	li	a0,10
800001d8:	2c69                	jal	80000472 <uart_putc>
800001da:	fe842503          	lw	a0,-24(s0)
800001de:	2b15                	jal	80000712 <kfree>
800001e0:	fe442503          	lw	a0,-28(s0)
800001e4:	233d                	jal	80000712 <kfree>
800001e6:	2395                	jal	8000074a <proc_init>
800001e8:	800017b7          	lui	a5,0x80001
800001ec:	c1c78513          	addi	a0,a5,-996 # 80000c1c <msg+0xa4>
800001f0:	247d                	jal	8000049e <uart_puts>
800001f2:	800017b7          	lui	a5,0x80001
800001f6:	33078793          	addi	a5,a5,816 # 80001330 <_user_program_start>
800001fa:	853e                	mv	a0,a5
800001fc:	2b45                	jal	800007ac <proc_create>
800001fe:	fea42023          	sw	a0,-32(s0)
80000202:	800017b7          	lui	a5,0x80001
80000206:	c3078513          	addi	a0,a5,-976 # 80000c30 <msg+0xb8>
8000020a:	2c51                	jal	8000049e <uart_puts>
8000020c:	fe042783          	lw	a5,-32(s0)
80000210:	0887a783          	lw	a5,136(a5)
80000214:	853e                	mv	a0,a5
80000216:	24c9                	jal	800004d8 <uart_putint>
80000218:	800017b7          	lui	a5,0x80001
8000021c:	c4c78513          	addi	a0,a5,-948 # 80000c4c <msg+0xd4>
80000220:	2cbd                	jal	8000049e <uart_puts>
80000222:	fe042783          	lw	a5,-32(s0)
80000226:	0807a783          	lw	a5,128(a5)
8000022a:	853e                	mv	a0,a5
8000022c:	2ead                	jal	800005a6 <uart_puthex>
8000022e:	4529                	li	a0,10
80000230:	2489                	jal	80000472 <uart_putc>
80000232:	800007b7          	lui	a5,0x80000
80000236:	0f078793          	addi	a5,a5,240 # 800000f0 <process_a>
8000023a:	853e                	mv	a0,a5
8000023c:	2b85                	jal	800007ac <proc_create>
8000023e:	fca42e23          	sw	a0,-36(s0)
80000242:	800017b7          	lui	a5,0x80001
80000246:	c5478513          	addi	a0,a5,-940 # 80000c54 <msg+0xdc>
8000024a:	2c91                	jal	8000049e <uart_puts>
8000024c:	fdc42783          	lw	a5,-36(s0)
80000250:	0887a783          	lw	a5,136(a5)
80000254:	853e                	mv	a0,a5
80000256:	2449                	jal	800004d8 <uart_putint>
80000258:	800017b7          	lui	a5,0x80001
8000025c:	c4c78513          	addi	a0,a5,-948 # 80000c4c <msg+0xd4>
80000260:	2c3d                	jal	8000049e <uart_puts>
80000262:	fdc42783          	lw	a5,-36(s0)
80000266:	0807a783          	lw	a5,128(a5)
8000026a:	853e                	mv	a0,a5
8000026c:	2e2d                	jal	800005a6 <uart_puthex>
8000026e:	800017b7          	lui	a5,0x80001
80000272:	c6478513          	addi	a0,a5,-924 # 80000c64 <msg+0xec>
80000276:	2425                	jal	8000049e <uart_puts>
80000278:	fdc42783          	lw	a5,-36(s0)
8000027c:	0847a783          	lw	a5,132(a5)
80000280:	853e                	mv	a0,a5
80000282:	2615                	jal	800005a6 <uart_puthex>
80000284:	4529                	li	a0,10
80000286:	22f5                	jal	80000472 <uart_putc>
80000288:	800007b7          	lui	a5,0x80000
8000028c:	12478793          	addi	a5,a5,292 # 80000124 <process_b>
80000290:	853e                	mv	a0,a5
80000292:	2b29                	jal	800007ac <proc_create>
80000294:	fca42c23          	sw	a0,-40(s0)
80000298:	800017b7          	lui	a5,0x80001
8000029c:	c5478513          	addi	a0,a5,-940 # 80000c54 <msg+0xdc>
800002a0:	2afd                	jal	8000049e <uart_puts>
800002a2:	fd842783          	lw	a5,-40(s0)
800002a6:	0887a783          	lw	a5,136(a5)
800002aa:	853e                	mv	a0,a5
800002ac:	2435                	jal	800004d8 <uart_putint>
800002ae:	800017b7          	lui	a5,0x80001
800002b2:	c4c78513          	addi	a0,a5,-948 # 80000c4c <msg+0xd4>
800002b6:	22e5                	jal	8000049e <uart_puts>
800002b8:	fd842783          	lw	a5,-40(s0)
800002bc:	0807a783          	lw	a5,128(a5)
800002c0:	853e                	mv	a0,a5
800002c2:	24d5                	jal	800005a6 <uart_puthex>
800002c4:	800017b7          	lui	a5,0x80001
800002c8:	c6478513          	addi	a0,a5,-924 # 80000c64 <msg+0xec>
800002cc:	2ac9                	jal	8000049e <uart_puts>
800002ce:	fd842783          	lw	a5,-40(s0)
800002d2:	0847a783          	lw	a5,132(a5)
800002d6:	853e                	mv	a0,a5
800002d8:	24f9                	jal	800005a6 <uart_puthex>
800002da:	4529                	li	a0,10
800002dc:	2a59                	jal	80000472 <uart_putc>
800002de:	2501                	jal	800008de <scheduler_init>
800002e0:	800017b7          	lui	a5,0x80001
800002e4:	c6c78513          	addi	a0,a5,-916 # 80000c6c <msg+0xf4>
800002e8:	2a5d                	jal	8000049e <uart_puts>
800002ea:	800017b7          	lui	a5,0x80001
800002ee:	32c7a783          	lw	a5,812(a5) # 8000132c <current>
800002f2:	0887a783          	lw	a5,136(a5)
800002f6:	853e                	mv	a0,a5
800002f8:	22c5                	jal	800004d8 <uart_putint>
800002fa:	4529                	li	a0,10
800002fc:	2a9d                	jal	80000472 <uart_putc>
800002fe:	800017b7          	lui	a5,0x80001
80000302:	a6078793          	addi	a5,a5,-1440 # 80000a60 <trap_handler>
80000306:	30579073          	csrw	mtvec,a5
8000030a:	800017b7          	lui	a5,0x80001
8000030e:	c8478513          	addi	a0,a5,-892 # 80000c84 <msg+0x10c>
80000312:	2271                	jal	8000049e <uart_puts>
80000314:	2551                	jal	80000998 <timer_init>
80000316:	800017b7          	lui	a5,0x80001
8000031a:	c9878513          	addi	a0,a5,-872 # 80000c98 <msg+0x120>
8000031e:	2241                	jal	8000049e <uart_puts>
80000320:	800017b7          	lui	a5,0x80001
80000324:	cb078513          	addi	a0,a5,-848 # 80000cb0 <msg+0x138>
80000328:	2a9d                	jal	8000049e <uart_puts>
8000032a:	800017b7          	lui	a5,0x80001
8000032e:	cd078513          	addi	a0,a5,-816 # 80000cd0 <msg+0x158>
80000332:	22b5                	jal	8000049e <uart_puts>
80000334:	800017b7          	lui	a5,0x80001
80000338:	33078793          	addi	a5,a5,816 # 80001330 <_user_program_start>
8000033c:	853e                	mv	a0,a5
8000033e:	24a5                	jal	800005a6 <uart_puthex>
80000340:	4529                	li	a0,10
80000342:	2a05                	jal	80000472 <uart_putc>
80000344:	800017b7          	lui	a5,0x80001
80000348:	ce478513          	addi	a0,a5,-796 # 80000ce4 <msg+0x16c>
8000034c:	2a89                	jal	8000049e <uart_puts>
8000034e:	800017b7          	lui	a5,0x80001
80000352:	40878793          	addi	a5,a5,1032 # 80001408 <_user_program_end>
80000356:	853e                	mv	a0,a5
80000358:	24b9                	jal	800005a6 <uart_puthex>
8000035a:	4529                	li	a0,10
8000035c:	2a19                	jal	80000472 <uart_putc>
8000035e:	fe042783          	lw	a5,-32(s0)
80000362:	0807a783          	lw	a5,128(a5)
80000366:	fcf42a23          	sw	a5,-44(s0)
8000036a:	800017b7          	lui	a5,0x80001
8000036e:	cf878513          	addi	a0,a5,-776 # 80000cf8 <msg+0x180>
80000372:	2235                	jal	8000049e <uart_puts>
80000374:	fd442783          	lw	a5,-44(s0)
80000378:	439c                	lw	a5,0(a5)
8000037a:	853e                	mv	a0,a5
8000037c:	242d                	jal	800005a6 <uart_puthex>
8000037e:	4529                	li	a0,10
80000380:	28cd                	jal	80000472 <uart_putc>
80000382:	800017b7          	lui	a5,0x80001
80000386:	d1078513          	addi	a0,a5,-752 # 80000d10 <msg+0x198>
8000038a:	2a11                	jal	8000049e <uart_puts>
8000038c:	fe042783          	lw	a5,-32(s0)
80000390:	0807a783          	lw	a5,128(a5)
80000394:	853e                	mv	a0,a5
80000396:	2c01                	jal	800005a6 <uart_puthex>
80000398:	4529                	li	a0,10
8000039a:	28e1                	jal	80000472 <uart_putc>
8000039c:	800017b7          	lui	a5,0x80001
800003a0:	d2478513          	addi	a0,a5,-732 # 80000d24 <msg+0x1ac>
800003a4:	28ed                	jal	8000049e <uart_puts>
800003a6:	fe042783          	lw	a5,-32(s0)
800003aa:	853e                	mv	a0,a5
800003ac:	2aed                	jal	800005a6 <uart_puthex>
800003ae:	4529                	li	a0,10
800003b0:	20c9                	jal	80000472 <uart_putc>
800003b2:	800017b7          	lui	a5,0x80001
800003b6:	d3878513          	addi	a0,a5,-712 # 80000d38 <msg+0x1c0>
800003ba:	20d5                	jal	8000049e <uart_puts>
800003bc:	fe042783          	lw	a5,-32(s0)
800003c0:	08078793          	addi	a5,a5,128
800003c4:	439c                	lw	a5,0(a5)
800003c6:	853e                	mv	a0,a5
800003c8:	2af9                	jal	800005a6 <uart_puthex>
800003ca:	4529                	li	a0,10
800003cc:	205d                	jal	80000472 <uart_putc>
800003ce:	800017b7          	lui	a5,0x80001
800003d2:	d4478513          	addi	a0,a5,-700 # 80000d44 <msg+0x1cc>
800003d6:	20e1                	jal	8000049e <uart_puts>
800003d8:	fe042783          	lw	a5,-32(s0)
800003dc:	08478793          	addi	a5,a5,132
800003e0:	439c                	lw	a5,0(a5)
800003e2:	853e                	mv	a0,a5
800003e4:	22c9                	jal	800005a6 <uart_puthex>
800003e6:	4529                	li	a0,10
800003e8:	2069                	jal	80000472 <uart_putc>
800003ea:	800017b7          	lui	a5,0x80001
800003ee:	d5078513          	addi	a0,a5,-688 # 80000d50 <msg+0x1d8>
800003f2:	2075                	jal	8000049e <uart_puts>
800003f4:	800017b7          	lui	a5,0x80001
800003f8:	33078793          	addi	a5,a5,816 # 80001330 <_user_program_start>
800003fc:	0007c783          	lbu	a5,0(a5)
80000400:	853e                	mv	a0,a5
80000402:	2255                	jal	800005a6 <uart_puthex>
80000404:	4529                	li	a0,10
80000406:	20b5                	jal	80000472 <uart_putc>
80000408:	800017b7          	lui	a5,0x80001
8000040c:	d5c78513          	addi	a0,a5,-676 # 80000d5c <msg+0x1e4>
80000410:	2079                	jal	8000049e <uart_puts>
80000412:	800017b7          	lui	a5,0x80001
80000416:	33178793          	addi	a5,a5,817 # 80001331 <_user_program_start+0x1>
8000041a:	0007c783          	lbu	a5,0(a5)
8000041e:	853e                	mv	a0,a5
80000420:	2259                	jal	800005a6 <uart_puthex>
80000422:	4529                	li	a0,10
80000424:	20b9                	jal	80000472 <uart_putc>
80000426:	800017b7          	lui	a5,0x80001
8000042a:	d6878513          	addi	a0,a5,-664 # 80000d68 <msg+0x1f0>
8000042e:	2885                	jal	8000049e <uart_puts>
80000430:	800017b7          	lui	a5,0x80001
80000434:	33278793          	addi	a5,a5,818 # 80001332 <_user_program_start+0x2>
80000438:	0007c783          	lbu	a5,0(a5)
8000043c:	853e                	mv	a0,a5
8000043e:	22a5                	jal	800005a6 <uart_puthex>
80000440:	4529                	li	a0,10
80000442:	2805                	jal	80000472 <uart_putc>
80000444:	800017b7          	lui	a5,0x80001
80000448:	d7478513          	addi	a0,a5,-652 # 80000d74 <msg+0x1fc>
8000044c:	2889                	jal	8000049e <uart_puts>
8000044e:	800017b7          	lui	a5,0x80001
80000452:	33378793          	addi	a5,a5,819 # 80001333 <_user_program_start+0x3>
80000456:	0007c783          	lbu	a5,0(a5)
8000045a:	853e                	mv	a0,a5
8000045c:	22a9                	jal	800005a6 <uart_puthex>
8000045e:	4529                	li	a0,10
80000460:	2809                	jal	80000472 <uart_putc>
80000462:	fe042503          	lw	a0,-32(s0)
80000466:	3985                	jal	800000d6 <jump_to_process>
80000468:	0001                	nop
8000046a:	50b2                	lw	ra,44(sp)
8000046c:	5422                	lw	s0,40(sp)
8000046e:	6145                	addi	sp,sp,48
80000470:	8082                	ret

80000472 <uart_putc>:
80000472:	7179                	addi	sp,sp,-48
80000474:	d606                	sw	ra,44(sp)
80000476:	d422                	sw	s0,40(sp)
80000478:	1800                	addi	s0,sp,48
8000047a:	87aa                	mv	a5,a0
8000047c:	fcf40fa3          	sb	a5,-33(s0)
80000480:	100007b7          	lui	a5,0x10000
80000484:	fef42623          	sw	a5,-20(s0)
80000488:	fec42783          	lw	a5,-20(s0)
8000048c:	fdf44703          	lbu	a4,-33(s0)
80000490:	00e78023          	sb	a4,0(a5) # 10000000 <_start-0x70000000>
80000494:	0001                	nop
80000496:	50b2                	lw	ra,44(sp)
80000498:	5422                	lw	s0,40(sp)
8000049a:	6145                	addi	sp,sp,48
8000049c:	8082                	ret

8000049e <uart_puts>:
8000049e:	1101                	addi	sp,sp,-32
800004a0:	ce06                	sw	ra,28(sp)
800004a2:	cc22                	sw	s0,24(sp)
800004a4:	1000                	addi	s0,sp,32
800004a6:	fea42623          	sw	a0,-20(s0)
800004aa:	a821                	j	800004c2 <uart_puts+0x24>
800004ac:	fec42783          	lw	a5,-20(s0)
800004b0:	0007c783          	lbu	a5,0(a5)
800004b4:	853e                	mv	a0,a5
800004b6:	3f75                	jal	80000472 <uart_putc>
800004b8:	fec42783          	lw	a5,-20(s0)
800004bc:	0785                	addi	a5,a5,1
800004be:	fef42623          	sw	a5,-20(s0)
800004c2:	fec42783          	lw	a5,-20(s0)
800004c6:	0007c783          	lbu	a5,0(a5)
800004ca:	f3ed                	bnez	a5,800004ac <uart_puts+0xe>
800004cc:	0001                	nop
800004ce:	0001                	nop
800004d0:	40f2                	lw	ra,28(sp)
800004d2:	4462                	lw	s0,24(sp)
800004d4:	6105                	addi	sp,sp,32
800004d6:	8082                	ret

800004d8 <uart_putint>:
800004d8:	7139                	addi	sp,sp,-64
800004da:	de06                	sw	ra,60(sp)
800004dc:	dc22                	sw	s0,56(sp)
800004de:	0080                	addi	s0,sp,64
800004e0:	fca42623          	sw	a0,-52(s0)
800004e4:	fcc42783          	lw	a5,-52(s0)
800004e8:	e789                	bnez	a5,800004f2 <uart_putint+0x1a>
800004ea:	03000513          	li	a0,48
800004ee:	3751                	jal	80000472 <uart_putc>
800004f0:	a07d                	j	8000059e <uart_putint+0xc6>
800004f2:	47ad                	li	a5,11
800004f4:	fef42623          	sw	a5,-20(s0)
800004f8:	a0bd                	j	80000566 <uart_putint+0x8e>
800004fa:	fcc42703          	lw	a4,-52(s0)
800004fe:	666667b7          	lui	a5,0x66666
80000502:	66778793          	addi	a5,a5,1639 # 66666667 <_start-0x19999999>
80000506:	02f717b3          	mulh	a5,a4,a5
8000050a:	4027d693          	srai	a3,a5,0x2
8000050e:	41f75793          	srai	a5,a4,0x1f
80000512:	8e9d                	sub	a3,a3,a5
80000514:	87b6                	mv	a5,a3
80000516:	078a                	slli	a5,a5,0x2
80000518:	97b6                	add	a5,a5,a3
8000051a:	0786                	slli	a5,a5,0x1
8000051c:	40f707b3          	sub	a5,a4,a5
80000520:	fef42223          	sw	a5,-28(s0)
80000524:	fe442783          	lw	a5,-28(s0)
80000528:	0ff7f793          	zext.b	a5,a5
8000052c:	03078793          	addi	a5,a5,48
80000530:	0ff7f713          	zext.b	a4,a5
80000534:	fec42783          	lw	a5,-20(s0)
80000538:	17c1                	addi	a5,a5,-16
8000053a:	97a2                	add	a5,a5,s0
8000053c:	fee78423          	sb	a4,-24(a5)
80000540:	fec42783          	lw	a5,-20(s0)
80000544:	17fd                	addi	a5,a5,-1
80000546:	fef42623          	sw	a5,-20(s0)
8000054a:	fcc42783          	lw	a5,-52(s0)
8000054e:	66666737          	lui	a4,0x66666
80000552:	66770713          	addi	a4,a4,1639 # 66666667 <_start-0x19999999>
80000556:	02e79733          	mulh	a4,a5,a4
8000055a:	8709                	srai	a4,a4,0x2
8000055c:	87fd                	srai	a5,a5,0x1f
8000055e:	40f707b3          	sub	a5,a4,a5
80000562:	fcf42623          	sw	a5,-52(s0)
80000566:	fcc42783          	lw	a5,-52(s0)
8000056a:	f8f048e3          	bgtz	a5,800004fa <uart_putint+0x22>
8000056e:	fec42783          	lw	a5,-20(s0)
80000572:	0785                	addi	a5,a5,1
80000574:	fef42423          	sw	a5,-24(s0)
80000578:	a831                	j	80000594 <uart_putint+0xbc>
8000057a:	fe842783          	lw	a5,-24(s0)
8000057e:	17c1                	addi	a5,a5,-16
80000580:	97a2                	add	a5,a5,s0
80000582:	fe87c783          	lbu	a5,-24(a5)
80000586:	853e                	mv	a0,a5
80000588:	35ed                	jal	80000472 <uart_putc>
8000058a:	fe842783          	lw	a5,-24(s0)
8000058e:	0785                	addi	a5,a5,1
80000590:	fef42423          	sw	a5,-24(s0)
80000594:	fe842703          	lw	a4,-24(s0)
80000598:	47ad                	li	a5,11
8000059a:	fee7d0e3          	bge	a5,a4,8000057a <uart_putint+0xa2>
8000059e:	50f2                	lw	ra,60(sp)
800005a0:	5462                	lw	s0,56(sp)
800005a2:	6121                	addi	sp,sp,64
800005a4:	8082                	ret

800005a6 <uart_puthex>:
800005a6:	7139                	addi	sp,sp,-64
800005a8:	de06                	sw	ra,60(sp)
800005aa:	dc22                	sw	s0,56(sp)
800005ac:	0080                	addi	s0,sp,64
800005ae:	fca42623          	sw	a0,-52(s0)
800005b2:	800017b7          	lui	a5,0x80001
800005b6:	d8078513          	addi	a0,a5,-640 # 80000d80 <msg+0x208>
800005ba:	35d5                	jal	8000049e <uart_puts>
800005bc:	fcc42783          	lw	a5,-52(s0)
800005c0:	e789                	bnez	a5,800005ca <uart_puthex+0x24>
800005c2:	03000513          	li	a0,48
800005c6:	3575                	jal	80000472 <uart_putc>
800005c8:	a04d                	j	8000066a <uart_puthex+0xc4>
800005ca:	47ad                	li	a5,11
800005cc:	fef42623          	sw	a5,-20(s0)
800005d0:	a095                	j	80000634 <uart_puthex+0x8e>
800005d2:	fcc42783          	lw	a5,-52(s0)
800005d6:	8bbd                	andi	a5,a5,15
800005d8:	fef42223          	sw	a5,-28(s0)
800005dc:	fe442703          	lw	a4,-28(s0)
800005e0:	47a5                	li	a5,9
800005e2:	02e7c163          	blt	a5,a4,80000604 <uart_puthex+0x5e>
800005e6:	fe442783          	lw	a5,-28(s0)
800005ea:	0ff7f793          	zext.b	a5,a5
800005ee:	03078793          	addi	a5,a5,48
800005f2:	0ff7f713          	zext.b	a4,a5
800005f6:	fec42783          	lw	a5,-20(s0)
800005fa:	17c1                	addi	a5,a5,-16
800005fc:	97a2                	add	a5,a5,s0
800005fe:	fee78423          	sb	a4,-24(a5)
80000602:	a839                	j	80000620 <uart_puthex+0x7a>
80000604:	fe442783          	lw	a5,-28(s0)
80000608:	0ff7f793          	zext.b	a5,a5
8000060c:	05778793          	addi	a5,a5,87
80000610:	0ff7f713          	zext.b	a4,a5
80000614:	fec42783          	lw	a5,-20(s0)
80000618:	17c1                	addi	a5,a5,-16
8000061a:	97a2                	add	a5,a5,s0
8000061c:	fee78423          	sb	a4,-24(a5)
80000620:	fec42783          	lw	a5,-20(s0)
80000624:	17fd                	addi	a5,a5,-1
80000626:	fef42623          	sw	a5,-20(s0)
8000062a:	fcc42783          	lw	a5,-52(s0)
8000062e:	8391                	srli	a5,a5,0x4
80000630:	fcf42623          	sw	a5,-52(s0)
80000634:	fcc42783          	lw	a5,-52(s0)
80000638:	ffc9                	bnez	a5,800005d2 <uart_puthex+0x2c>
8000063a:	fec42783          	lw	a5,-20(s0)
8000063e:	0785                	addi	a5,a5,1
80000640:	fef42423          	sw	a5,-24(s0)
80000644:	a831                	j	80000660 <uart_puthex+0xba>
80000646:	fe842783          	lw	a5,-24(s0)
8000064a:	17c1                	addi	a5,a5,-16
8000064c:	97a2                	add	a5,a5,s0
8000064e:	fe87c783          	lbu	a5,-24(a5)
80000652:	853e                	mv	a0,a5
80000654:	3d39                	jal	80000472 <uart_putc>
80000656:	fe842783          	lw	a5,-24(s0)
8000065a:	0785                	addi	a5,a5,1
8000065c:	fef42423          	sw	a5,-24(s0)
80000660:	fe842703          	lw	a4,-24(s0)
80000664:	47ad                	li	a5,11
80000666:	fee7d0e3          	bge	a5,a4,80000646 <uart_puthex+0xa0>
8000066a:	50f2                	lw	ra,60(sp)
8000066c:	5462                	lw	s0,56(sp)
8000066e:	6121                	addi	sp,sp,64
80000670:	8082                	ret

80000672 <mem_init>:
80000672:	1101                	addi	sp,sp,-32
80000674:	ce06                	sw	ra,28(sp)
80000676:	cc22                	sw	s0,24(sp)
80000678:	1000                	addi	s0,sp,32
8000067a:	800207b7          	lui	a5,0x80020
8000067e:	fef42423          	sw	a5,-24(s0)
80000682:	a015                	j	800006a6 <mem_init+0x34>
80000684:	fe842783          	lw	a5,-24(s0)
80000688:	fef42623          	sw	a5,-20(s0)
8000068c:	fe842703          	lw	a4,-24(s0)
80000690:	6785                	lui	a5,0x1
80000692:	973e                	add	a4,a4,a5
80000694:	fec42783          	lw	a5,-20(s0)
80000698:	c398                	sw	a4,0(a5)
8000069a:	fe842703          	lw	a4,-24(s0)
8000069e:	6785                	lui	a5,0x1
800006a0:	97ba                	add	a5,a5,a4
800006a2:	fef42423          	sw	a5,-24(s0)
800006a6:	fe842703          	lw	a4,-24(s0)
800006aa:	6785                	lui	a5,0x1
800006ac:	973e                	add	a4,a4,a5
800006ae:	801007b7          	lui	a5,0x80100
800006b2:	fce7f9e3          	bgeu	a5,a4,80000684 <mem_init+0x12>
800006b6:	fec42783          	lw	a5,-20(s0)
800006ba:	0007a023          	sw	zero,0(a5) # 80100000 <_user_program_end+0xfebf8>
800006be:	800017b7          	lui	a5,0x80001
800006c2:	80020737          	lui	a4,0x80020
800006c6:	d8e7a423          	sw	a4,-632(a5) # 80000d88 <freelist>
800006ca:	0001                	nop
800006cc:	40f2                	lw	ra,28(sp)
800006ce:	4462                	lw	s0,24(sp)
800006d0:	6105                	addi	sp,sp,32
800006d2:	8082                	ret

800006d4 <kalloc>:
800006d4:	1101                	addi	sp,sp,-32
800006d6:	ce06                	sw	ra,28(sp)
800006d8:	cc22                	sw	s0,24(sp)
800006da:	1000                	addi	s0,sp,32
800006dc:	800017b7          	lui	a5,0x80001
800006e0:	d887a783          	lw	a5,-632(a5) # 80000d88 <freelist>
800006e4:	e399                	bnez	a5,800006ea <kalloc+0x16>
800006e6:	4781                	li	a5,0
800006e8:	a005                	j	80000708 <kalloc+0x34>
800006ea:	800017b7          	lui	a5,0x80001
800006ee:	d887a783          	lw	a5,-632(a5) # 80000d88 <freelist>
800006f2:	fef42623          	sw	a5,-20(s0)
800006f6:	fec42783          	lw	a5,-20(s0)
800006fa:	4398                	lw	a4,0(a5)
800006fc:	800017b7          	lui	a5,0x80001
80000700:	d8e7a423          	sw	a4,-632(a5) # 80000d88 <freelist>
80000704:	fec42783          	lw	a5,-20(s0)
80000708:	853e                	mv	a0,a5
8000070a:	40f2                	lw	ra,28(sp)
8000070c:	4462                	lw	s0,24(sp)
8000070e:	6105                	addi	sp,sp,32
80000710:	8082                	ret

80000712 <kfree>:
80000712:	7179                	addi	sp,sp,-48
80000714:	d606                	sw	ra,44(sp)
80000716:	d422                	sw	s0,40(sp)
80000718:	1800                	addi	s0,sp,48
8000071a:	fca42e23          	sw	a0,-36(s0)
8000071e:	fdc42783          	lw	a5,-36(s0)
80000722:	fef42623          	sw	a5,-20(s0)
80000726:	800017b7          	lui	a5,0x80001
8000072a:	d887a703          	lw	a4,-632(a5) # 80000d88 <freelist>
8000072e:	fec42783          	lw	a5,-20(s0)
80000732:	c398                	sw	a4,0(a5)
80000734:	800017b7          	lui	a5,0x80001
80000738:	fec42703          	lw	a4,-20(s0)
8000073c:	d8e7a423          	sw	a4,-632(a5) # 80000d88 <freelist>
80000740:	0001                	nop
80000742:	50b2                	lw	ra,44(sp)
80000744:	5422                	lw	s0,40(sp)
80000746:	6145                	addi	sp,sp,48
80000748:	8082                	ret

8000074a <proc_init>:
8000074a:	1101                	addi	sp,sp,-32
8000074c:	ce06                	sw	ra,28(sp)
8000074e:	cc22                	sw	s0,24(sp)
80000750:	1000                	addi	s0,sp,32
80000752:	fe042623          	sw	zero,-20(s0)
80000756:	a081                	j	80000796 <proc_init+0x4c>
80000758:	800017b7          	lui	a5,0x80001
8000075c:	d8c78693          	addi	a3,a5,-628 # 80000d8c <procs>
80000760:	fec42703          	lw	a4,-20(s0)
80000764:	87ba                	mv	a5,a4
80000766:	078e                	slli	a5,a5,0x3
80000768:	97ba                	add	a5,a5,a4
8000076a:	0792                	slli	a5,a5,0x4
8000076c:	97b6                	add	a5,a5,a3
8000076e:	08078623          	sb	zero,140(a5)
80000772:	800017b7          	lui	a5,0x80001
80000776:	d8c78693          	addi	a3,a5,-628 # 80000d8c <procs>
8000077a:	fec42703          	lw	a4,-20(s0)
8000077e:	87ba                	mv	a5,a4
80000780:	078e                	slli	a5,a5,0x3
80000782:	97ba                	add	a5,a5,a4
80000784:	0792                	slli	a5,a5,0x4
80000786:	97b6                	add	a5,a5,a3
80000788:	0807a423          	sw	zero,136(a5)
8000078c:	fec42783          	lw	a5,-20(s0)
80000790:	0785                	addi	a5,a5,1
80000792:	fef42623          	sw	a5,-20(s0)
80000796:	fec42703          	lw	a4,-20(s0)
8000079a:	47a5                	li	a5,9
8000079c:	fae7dee3          	bge	a5,a4,80000758 <proc_init+0xe>
800007a0:	0001                	nop
800007a2:	0001                	nop
800007a4:	40f2                	lw	ra,28(sp)
800007a6:	4462                	lw	s0,24(sp)
800007a8:	6105                	addi	sp,sp,32
800007aa:	8082                	ret

800007ac <proc_create>:
800007ac:	7179                	addi	sp,sp,-48
800007ae:	d606                	sw	ra,44(sp)
800007b0:	d422                	sw	s0,40(sp)
800007b2:	1800                	addi	s0,sp,48
800007b4:	fca42e23          	sw	a0,-36(s0)
800007b8:	fe042623          	sw	zero,-20(s0)
800007bc:	a231                	j	800008c8 <proc_create+0x11c>
800007be:	800017b7          	lui	a5,0x80001
800007c2:	d8c78693          	addi	a3,a5,-628 # 80000d8c <procs>
800007c6:	fec42703          	lw	a4,-20(s0)
800007ca:	87ba                	mv	a5,a4
800007cc:	078e                	slli	a5,a5,0x3
800007ce:	97ba                	add	a5,a5,a4
800007d0:	0792                	slli	a5,a5,0x4
800007d2:	97b6                	add	a5,a5,a3
800007d4:	0887a783          	lw	a5,136(a5)
800007d8:	e3fd                	bnez	a5,800008be <proc_create+0x112>
800007da:	800017b7          	lui	a5,0x80001
800007de:	d847a683          	lw	a3,-636(a5) # 80000d84 <nextpid>
800007e2:	800017b7          	lui	a5,0x80001
800007e6:	d8c78613          	addi	a2,a5,-628 # 80000d8c <procs>
800007ea:	fec42703          	lw	a4,-20(s0)
800007ee:	87ba                	mv	a5,a4
800007f0:	078e                	slli	a5,a5,0x3
800007f2:	97ba                	add	a5,a5,a4
800007f4:	0792                	slli	a5,a5,0x4
800007f6:	97b2                	add	a5,a5,a2
800007f8:	08d7a423          	sw	a3,136(a5)
800007fc:	800017b7          	lui	a5,0x80001
80000800:	d847a783          	lw	a5,-636(a5) # 80000d84 <nextpid>
80000804:	00178713          	addi	a4,a5,1
80000808:	800017b7          	lui	a5,0x80001
8000080c:	d8e7a223          	sw	a4,-636(a5) # 80000d84 <nextpid>
80000810:	800017b7          	lui	a5,0x80001
80000814:	d8c78693          	addi	a3,a5,-628 # 80000d8c <procs>
80000818:	fec42703          	lw	a4,-20(s0)
8000081c:	87ba                	mv	a5,a4
8000081e:	078e                	slli	a5,a5,0x3
80000820:	97ba                	add	a5,a5,a4
80000822:	0792                	slli	a5,a5,0x4
80000824:	97b6                	add	a5,a5,a3
80000826:	fdc42703          	lw	a4,-36(s0)
8000082a:	08e7a023          	sw	a4,128(a5)
8000082e:	355d                	jal	800006d4 <kalloc>
80000830:	fea42423          	sw	a0,-24(s0)
80000834:	fe842703          	lw	a4,-24(s0)
80000838:	6785                	lui	a5,0x1
8000083a:	00f706b3          	add	a3,a4,a5
8000083e:	800017b7          	lui	a5,0x80001
80000842:	d8c78613          	addi	a2,a5,-628 # 80000d8c <procs>
80000846:	fec42703          	lw	a4,-20(s0)
8000084a:	87ba                	mv	a5,a4
8000084c:	078e                	slli	a5,a5,0x3
8000084e:	97ba                	add	a5,a5,a4
80000850:	0792                	slli	a5,a5,0x4
80000852:	97b2                	add	a5,a5,a2
80000854:	08d7a223          	sw	a3,132(a5)
80000858:	800017b7          	lui	a5,0x80001
8000085c:	d8c78693          	addi	a3,a5,-628 # 80000d8c <procs>
80000860:	fec42703          	lw	a4,-20(s0)
80000864:	87ba                	mv	a5,a4
80000866:	078e                	slli	a5,a5,0x3
80000868:	97ba                	add	a5,a5,a4
8000086a:	0792                	slli	a5,a5,0x4
8000086c:	97b6                	add	a5,a5,a3
8000086e:	0847a683          	lw	a3,132(a5)
80000872:	800017b7          	lui	a5,0x80001
80000876:	d8c78613          	addi	a2,a5,-628 # 80000d8c <procs>
8000087a:	fec42703          	lw	a4,-20(s0)
8000087e:	87ba                	mv	a5,a4
80000880:	078e                	slli	a5,a5,0x3
80000882:	97ba                	add	a5,a5,a4
80000884:	0792                	slli	a5,a5,0x4
80000886:	97b2                	add	a5,a5,a2
80000888:	c794                	sw	a3,8(a5)
8000088a:	800017b7          	lui	a5,0x80001
8000088e:	d8c78693          	addi	a3,a5,-628 # 80000d8c <procs>
80000892:	fec42703          	lw	a4,-20(s0)
80000896:	87ba                	mv	a5,a4
80000898:	078e                	slli	a5,a5,0x3
8000089a:	97ba                	add	a5,a5,a4
8000089c:	0792                	slli	a5,a5,0x4
8000089e:	97b6                	add	a5,a5,a3
800008a0:	4705                	li	a4,1
800008a2:	08e78623          	sb	a4,140(a5)
800008a6:	fec42703          	lw	a4,-20(s0)
800008aa:	87ba                	mv	a5,a4
800008ac:	078e                	slli	a5,a5,0x3
800008ae:	97ba                	add	a5,a5,a4
800008b0:	0792                	slli	a5,a5,0x4
800008b2:	80001737          	lui	a4,0x80001
800008b6:	d8c70713          	addi	a4,a4,-628 # 80000d8c <procs>
800008ba:	97ba                	add	a5,a5,a4
800008bc:	a821                	j	800008d4 <proc_create+0x128>
800008be:	fec42783          	lw	a5,-20(s0)
800008c2:	0785                	addi	a5,a5,1
800008c4:	fef42623          	sw	a5,-20(s0)
800008c8:	fec42703          	lw	a4,-20(s0)
800008cc:	47a5                	li	a5,9
800008ce:	eee7d8e3          	bge	a5,a4,800007be <proc_create+0x12>
800008d2:	4781                	li	a5,0
800008d4:	853e                	mv	a0,a5
800008d6:	50b2                	lw	ra,44(sp)
800008d8:	5422                	lw	s0,40(sp)
800008da:	6145                	addi	sp,sp,48
800008dc:	8082                	ret

800008de <scheduler_init>:
800008de:	1101                	addi	sp,sp,-32
800008e0:	ce06                	sw	ra,28(sp)
800008e2:	cc22                	sw	s0,24(sp)
800008e4:	1000                	addi	s0,sp,32
800008e6:	fe042623          	sw	zero,-20(s0)
800008ea:	a0b1                	j	80000936 <scheduler_init+0x58>
800008ec:	800017b7          	lui	a5,0x80001
800008f0:	d8c78693          	addi	a3,a5,-628 # 80000d8c <procs>
800008f4:	fec42703          	lw	a4,-20(s0)
800008f8:	87ba                	mv	a5,a4
800008fa:	078e                	slli	a5,a5,0x3
800008fc:	97ba                	add	a5,a5,a4
800008fe:	0792                	slli	a5,a5,0x4
80000900:	97b6                	add	a5,a5,a3
80000902:	08c7c703          	lbu	a4,140(a5)
80000906:	4785                	li	a5,1
80000908:	02f71263          	bne	a4,a5,8000092c <scheduler_init+0x4e>
8000090c:	fec42703          	lw	a4,-20(s0)
80000910:	87ba                	mv	a5,a4
80000912:	078e                	slli	a5,a5,0x3
80000914:	97ba                	add	a5,a5,a4
80000916:	0792                	slli	a5,a5,0x4
80000918:	80001737          	lui	a4,0x80001
8000091c:	d8c70713          	addi	a4,a4,-628 # 80000d8c <procs>
80000920:	973e                	add	a4,a4,a5
80000922:	800017b7          	lui	a5,0x80001
80000926:	32e7a623          	sw	a4,812(a5) # 8000132c <current>
8000092a:	a819                	j	80000940 <scheduler_init+0x62>
8000092c:	fec42783          	lw	a5,-20(s0)
80000930:	0785                	addi	a5,a5,1
80000932:	fef42623          	sw	a5,-20(s0)
80000936:	fec42703          	lw	a4,-20(s0)
8000093a:	47a5                	li	a5,9
8000093c:	fae7d8e3          	bge	a5,a4,800008ec <scheduler_init+0xe>
80000940:	40f2                	lw	ra,28(sp)
80000942:	4462                	lw	s0,24(sp)
80000944:	6105                	addi	sp,sp,32
80000946:	8082                	ret

80000948 <schedule>:
80000948:	1141                	addi	sp,sp,-16
8000094a:	c606                	sw	ra,12(sp)
8000094c:	c422                	sw	s0,8(sp)
8000094e:	0800                	addi	s0,sp,16
80000950:	800017b7          	lui	a5,0x80001
80000954:	32c7a703          	lw	a4,812(a5) # 8000132c <current>
80000958:	800017b7          	lui	a5,0x80001
8000095c:	d8c78793          	addi	a5,a5,-628 # 80000d8c <procs>
80000960:	00f71b63          	bne	a4,a5,80000976 <schedule+0x2e>
80000964:	800017b7          	lui	a5,0x80001
80000968:	80001737          	lui	a4,0x80001
8000096c:	e1c70713          	addi	a4,a4,-484 # 80000e1c <procs+0x90>
80000970:	32e7a623          	sw	a4,812(a5) # 8000132c <current>
80000974:	a809                	j	80000986 <schedule+0x3e>
80000976:	800017b7          	lui	a5,0x80001
8000097a:	80001737          	lui	a4,0x80001
8000097e:	d8c70713          	addi	a4,a4,-628 # 80000d8c <procs>
80000982:	32e7a623          	sw	a4,812(a5) # 8000132c <current>
80000986:	800017b7          	lui	a5,0x80001
8000098a:	32c7a783          	lw	a5,812(a5) # 8000132c <current>
8000098e:	853e                	mv	a0,a5
80000990:	40b2                	lw	ra,12(sp)
80000992:	4422                	lw	s0,8(sp)
80000994:	0141                	addi	sp,sp,16
80000996:	8082                	ret

80000998 <timer_init>:
80000998:	1101                	addi	sp,sp,-32
8000099a:	ce06                	sw	ra,28(sp)
8000099c:	cc22                	sw	s0,24(sp)
8000099e:	1000                	addi	s0,sp,32
800009a0:	0200c7b7          	lui	a5,0x200c
800009a4:	17e1                	addi	a5,a5,-8 # 200bff8 <_start-0x7dff4008>
800009a6:	4398                	lw	a4,0(a5)
800009a8:	43dc                	lw	a5,4(a5)
800009aa:	02004837          	lui	a6,0x2004
800009ae:	6561                	lui	a0,0x18
800009b0:	6a050513          	addi	a0,a0,1696 # 186a0 <_start-0x7ffe7960>
800009b4:	4581                	li	a1,0
800009b6:	00a70633          	add	a2,a4,a0
800009ba:	88b2                	mv	a7,a2
800009bc:	00e8b8b3          	sltu	a7,a7,a4
800009c0:	00b786b3          	add	a3,a5,a1
800009c4:	00d887b3          	add	a5,a7,a3
800009c8:	86be                	mv	a3,a5
800009ca:	8732                	mv	a4,a2
800009cc:	87b6                	mv	a5,a3
800009ce:	00e82023          	sw	a4,0(a6) # 2004000 <_start-0x7dffc000>
800009d2:	00f82223          	sw	a5,4(a6)
800009d6:	304027f3          	csrr	a5,mie
800009da:	fef42623          	sw	a5,-20(s0)
800009de:	fec42783          	lw	a5,-20(s0)
800009e2:	0807e793          	ori	a5,a5,128
800009e6:	fef42623          	sw	a5,-20(s0)
800009ea:	fec42783          	lw	a5,-20(s0)
800009ee:	30479073          	csrw	mie,a5
800009f2:	300027f3          	csrr	a5,mstatus
800009f6:	fef42423          	sw	a5,-24(s0)
800009fa:	fe842783          	lw	a5,-24(s0)
800009fe:	0087e793          	ori	a5,a5,8
80000a02:	fef42423          	sw	a5,-24(s0)
80000a06:	fe842783          	lw	a5,-24(s0)
80000a0a:	30079073          	csrw	mstatus,a5
80000a0e:	0001                	nop
80000a10:	40f2                	lw	ra,28(sp)
80000a12:	4462                	lw	s0,24(sp)
80000a14:	6105                	addi	sp,sp,32
80000a16:	8082                	ret

80000a18 <timer_reset>:
80000a18:	1141                	addi	sp,sp,-16
80000a1a:	c606                	sw	ra,12(sp)
80000a1c:	c422                	sw	s0,8(sp)
80000a1e:	0800                	addi	s0,sp,16
80000a20:	0200c7b7          	lui	a5,0x200c
80000a24:	17e1                	addi	a5,a5,-8 # 200bff8 <_start-0x7dff4008>
80000a26:	4398                	lw	a4,0(a5)
80000a28:	43dc                	lw	a5,4(a5)
80000a2a:	02004837          	lui	a6,0x2004
80000a2e:	6561                	lui	a0,0x18
80000a30:	6a050513          	addi	a0,a0,1696 # 186a0 <_start-0x7ffe7960>
80000a34:	4581                	li	a1,0
80000a36:	00a70633          	add	a2,a4,a0
80000a3a:	88b2                	mv	a7,a2
80000a3c:	00e8b8b3          	sltu	a7,a7,a4
80000a40:	00b786b3          	add	a3,a5,a1
80000a44:	00d887b3          	add	a5,a7,a3
80000a48:	86be                	mv	a3,a5
80000a4a:	8732                	mv	a4,a2
80000a4c:	87b6                	mv	a5,a3
80000a4e:	00e82023          	sw	a4,0(a6) # 2004000 <_start-0x7dffc000>
80000a52:	00f82223          	sw	a5,4(a6)
80000a56:	0001                	nop
80000a58:	40b2                	lw	ra,12(sp)
80000a5a:	4422                	lw	s0,8(sp)
80000a5c:	0141                	addi	sp,sp,16
80000a5e:	8082                	ret

80000a60 <trap_handler>:
80000a60:	00001317          	auipc	t1,0x1
80000a64:	8cc30313          	addi	t1,t1,-1844 # 8000132c <current>
80000a68:	00032303          	lw	t1,0(t1)
80000a6c:	00032023          	sw	zero,0(t1)
80000a70:	00132223          	sw	ra,4(t1)
80000a74:	00232423          	sw	sp,8(t1)
80000a78:	00332623          	sw	gp,12(t1)
80000a7c:	00432823          	sw	tp,16(t1)
80000a80:	00532a23          	sw	t0,20(t1)
80000a84:	00632c23          	sw	t1,24(t1)
80000a88:	00732e23          	sw	t2,28(t1)
80000a8c:	02832023          	sw	s0,32(t1)
80000a90:	02932223          	sw	s1,36(t1)
80000a94:	02a32423          	sw	a0,40(t1)
80000a98:	02b32623          	sw	a1,44(t1)
80000a9c:	02c32823          	sw	a2,48(t1)
80000aa0:	02d32a23          	sw	a3,52(t1)
80000aa4:	02e32c23          	sw	a4,56(t1)
80000aa8:	02f32e23          	sw	a5,60(t1)
80000aac:	05032023          	sw	a6,64(t1)
80000ab0:	05132223          	sw	a7,68(t1)
80000ab4:	05232423          	sw	s2,72(t1)
80000ab8:	05332623          	sw	s3,76(t1)
80000abc:	05432823          	sw	s4,80(t1)
80000ac0:	05532a23          	sw	s5,84(t1)
80000ac4:	05632c23          	sw	s6,88(t1)
80000ac8:	05732e23          	sw	s7,92(t1)
80000acc:	07832023          	sw	s8,96(t1)
80000ad0:	07932223          	sw	s9,100(t1)
80000ad4:	07a32423          	sw	s10,104(t1)
80000ad8:	07b32623          	sw	s11,108(t1)
80000adc:	07c32823          	sw	t3,112(t1)
80000ae0:	07d32a23          	sw	t4,116(t1)
80000ae4:	07e32c23          	sw	t5,120(t1)
80000ae8:	07f32e23          	sw	t6,124(t1)
80000aec:	341022f3          	csrr	t0,mepc
80000af0:	08532023          	sw	t0,128(t1)
80000af4:	80010137          	lui	sp,0x80010
80000af8:	3705                	jal	80000a18 <timer_reset>
80000afa:	35b9                	jal	80000948 <schedule>
80000afc:	08052283          	lw	t0,128(a0)
80000b00:	34129073          	csrw	mepc,t0
80000b04:	00452083          	lw	ra,4(a0)
80000b08:	00852103          	lw	sp,8(a0)
80000b0c:	00c52183          	lw	gp,12(a0)
80000b10:	01052203          	lw	tp,16(a0)
80000b14:	01452283          	lw	t0,20(a0)
80000b18:	01852303          	lw	t1,24(a0)
80000b1c:	01c52383          	lw	t2,28(a0)
80000b20:	5100                	lw	s0,32(a0)
80000b22:	5144                	lw	s1,36(a0)
80000b24:	554c                	lw	a1,44(a0)
80000b26:	5910                	lw	a2,48(a0)
80000b28:	5954                	lw	a3,52(a0)
80000b2a:	5d18                	lw	a4,56(a0)
80000b2c:	5d5c                	lw	a5,60(a0)
80000b2e:	04052803          	lw	a6,64(a0)
80000b32:	04452883          	lw	a7,68(a0)
80000b36:	04852903          	lw	s2,72(a0)
80000b3a:	04c52983          	lw	s3,76(a0)
80000b3e:	05052a03          	lw	s4,80(a0)
80000b42:	05452a83          	lw	s5,84(a0)
80000b46:	05852b03          	lw	s6,88(a0)
80000b4a:	05c52b83          	lw	s7,92(a0)
80000b4e:	06052c03          	lw	s8,96(a0)
80000b52:	06452c83          	lw	s9,100(a0)
80000b56:	06852d03          	lw	s10,104(a0)
80000b5a:	06c52d83          	lw	s11,108(a0)
80000b5e:	07052e03          	lw	t3,112(a0)
80000b62:	07452e83          	lw	t4,116(a0)
80000b66:	07852f03          	lw	t5,120(a0)
80000b6a:	07c52f83          	lw	t6,124(a0)
80000b6e:	5508                	lw	a0,40(a0)
80000b70:	30200073          	mret
80000b74:	0001                	nop
